BL51 BANKED LINKER/LOCATER V6.22.2.0                                                    06/27/2018  21:49:15  PAGE 1


BL51 BANKED LINKER/LOCATER V6.22.2.0, INVOKED BY:
D:\SOFTWARE\KEIL_V5\C51\BIN\BL51.EXE .\Objects\main.obj, .\Objects\xunji.obj TO .\Objects\test PRINT (.\Listings\test.m5
>> 1) RAMSIZE (256)


MEMORY MODEL: SMALL


INPUT MODULES INCLUDED:
  .\Objects\main.obj (MAIN)
  .\Objects\xunji.obj (XUNJI)
  D:\SOFTWARE\KEIL_V5\C51\LIB\C51S.LIB (?C_STARTUP)
  D:\SOFTWARE\KEIL_V5\C51\LIB\C51S.LIB (?C_INIT)


LINK MAP OF MODULE:  .\Objects\test (MAIN)


            TYPE    BASE      LENGTH    RELOCATION   SEGMENT NAME
            -----------------------------------------------------

            * * * * * * *   D A T A   M E M O R Y   * * * * * * *
            REG     0000H     0008H     ABSOLUTE     "REG BANK 0"
            DATA    0008H     0029H     UNIT         ?DT?XUNJI
            DATA    0031H     0004H     UNIT         _DATA_GROUP_
            IDATA   0035H     0001H     UNIT         ?STACK

            * * * * * * *   C O D E   M E M O R Y   * * * * * * *
            CODE    0000H     0003H     ABSOLUTE     
                    0003H     0008H                  *** GAP ***
            CODE    000BH     0003H     ABSOLUTE     
                    000EH     000DH                  *** GAP ***
            CODE    001BH     0003H     ABSOLUTE     
            CODE    001EH     011AH     UNIT         ?PR?_LOAD_TIME_CONFIG?XUNJI
            CODE    0138H     00C8H     UNIT         ?PR?KEY_SCAN?XUNJI
            CODE    0200H     008CH     UNIT         ?C_C51STARTUP
            CODE    028CH     005FH     UNIT         ?PR?T1_TIME?MAIN
            CODE    02EBH     005DH     UNIT         ?C_INITSEG
            CODE    0348H     005BH     UNIT         ?PR?KEY_CONTROL?XUNJI
            CODE    03A3H     0050H     UNIT         ?PR?STOP?XUNJI
            CODE    03F3H     004FH     UNIT         ?PR?CROSSROAD?XUNJI
            CODE    0442H     004AH     UNIT         ?CO?XUNJI
            CODE    048CH     0044H     UNIT         ?PR?INIT?XUNJI
            CODE    04D0H     0041H     UNIT         ?PR?T0_TIME?MAIN
            CODE    0511H     0040H     UNIT         ?PR?GET_WHEEL_STEPS?XUNJI
            CODE    0551H     0037H     UNIT         ?PR?OUTPUT?XUNJI
            CODE    0588H     0033H     UNIT         ?PR?INFRARED?XUNJI
            CODE    05BBH     002EH     UNIT         ?PR?SET_DISPLAY_NOW?XUNJI
            CODE    05E9H     002AH     UNIT         ?PR?TURN_LEFT?XUNJI
            CODE    0613H     002AH     UNIT         ?PR?TURN_RIGHT?XUNJI
            CODE    063DH     002AH     UNIT         ?PR?TURN_LEFT_MAX?XUNJI
            CODE    0667H     002AH     UNIT         ?PR?TURN_RIGHT_MAX?XUNJI
            CODE    0691H     0024H     UNIT         ?PR?TURN_LEFT_90?XUNJI
            CODE    06B5H     0024H     UNIT         ?PR?TURN_RIGHT_90?XUNJI
            CODE    06D9H     0024H     UNIT         ?PR?GO_STRAIGHT?XUNJI
            CODE    06FDH     001DH     UNIT         ?PR?STRAIGHT?XUNJI
            CODE    071AH     001CH     UNIT         ?PR?WAIT?XUNJI
            CODE    0736H     001BH     UNIT         ?PR?_DELAY?XUNJI
BL51 BANKED LINKER/LOCATER V6.22.2.0                                                  06/27/2018  21:49:15  PAGE 2


            CODE    0751H     000EH     UNIT         ?PR?MAIN?MAIN
            CODE    075FH     000EH     UNIT         ?PR?_SET_DISPLAY?XUNJI



OVERLAY MAP OF MODULE:   .\Objects\test (MAIN)


SEGMENT                               DATA_GROUP 
  +--> CALLED SEGMENT               START    LENGTH
---------------------------------------------------
?PR?T0_TIME?MAIN                    -----    -----
  +--> ?PR?OUTPUT?XUNJI

*** NEW ROOT ***************************************************

?PR?T1_TIME?MAIN                    -----    -----
  +--> ?PR?INFRARED?XUNJI

?PR?INFRARED?XUNJI                  -----    -----
  +--> ?PR?CROSSROAD?XUNJI
  +--> ?PR?TURN_LEFT_MAX?XUNJI
  +--> ?PR?TURN_RIGHT_MAX?XUNJI
  +--> ?PR?TURN_LEFT?XUNJI
  +--> ?PR?TURN_RIGHT?XUNJI
  +--> ?PR?STRAIGHT?XUNJI

?PR?CROSSROAD?XUNJI                 -----    -----
  +--> ?PR?WAIT?XUNJI
  +--> ?PR?TURN_LEFT_90?XUNJI
  +--> ?PR?STRAIGHT?XUNJI
  +--> ?PR?TURN_RIGHT_90?XUNJI
  +--> ?PR?GO_STRAIGHT?XUNJI
  +--> ?PR?STOP?XUNJI
  +--> ?PR?_SET_DISPLAY?XUNJI

?PR?STRAIGHT?XUNJI                  -----    -----
  +--> ?PR?_LOAD_TIME_CONFIG?XUNJI

?PR?_LOAD_TIME_CONFIG?XUNJI         -----    -----
  +--> ?CO?XUNJI
  +--> ?PR?_SET_DISPLAY?XUNJI

?PR?_SET_DISPLAY?XUNJI              -----    -----
  +--> ?CO?XUNJI

?PR?STOP?XUNJI                      0031H    0004H
  +--> ?PR?WAIT?XUNJI
  +--> ?PR?KEY_CONTROL?XUNJI
  +--> ?PR?_SET_DISPLAY?XUNJI
  +--> ?PR?_DELAY?XUNJI

?PR?KEY_CONTROL?XUNJI               -----    -----
  +--> ?PR?KEY_SCAN?XUNJI
  +--> ?PR?_SET_DISPLAY?XUNJI
  +--> ?PR?_LOAD_TIME_CONFIG?XUNJI

BL51 BANKED LINKER/LOCATER V6.22.2.0                                                  06/27/2018  21:49:15  PAGE 3


?PR?KEY_SCAN?XUNJI                  -----    -----
  +--> ?PR?_DELAY?XUNJI

?PR?TURN_LEFT_MAX?XUNJI             -----    -----
  +--> ?PR?_LOAD_TIME_CONFIG?XUNJI

?PR?TURN_RIGHT_MAX?XUNJI            -----    -----
  +--> ?PR?_LOAD_TIME_CONFIG?XUNJI

?PR?TURN_LEFT?XUNJI                 -----    -----
  +--> ?PR?_LOAD_TIME_CONFIG?XUNJI

?PR?TURN_RIGHT?XUNJI                -----    -----
  +--> ?PR?_LOAD_TIME_CONFIG?XUNJI

*** NEW ROOT ***************************************************

?C_C51STARTUP                       -----    -----
  +--> ?PR?MAIN?MAIN
  +--> ?C_INITSEG

?PR?MAIN?MAIN                       -----    -----
  +--> ?PR?INIT?XUNJI
  +--> ?PR?KEY_CONTROL?XUNJI
  +--> ?PR?SET_DISPLAY_NOW?XUNJI
  +--> ?PR?GET_WHEEL_STEPS?XUNJI

?PR?GET_WHEEL_STEPS?XUNJI           -----    -----
  +--> ?PR?_SET_DISPLAY?XUNJI



SYMBOL TABLE OF MODULE:  .\Objects\test (MAIN)

  VALUE           TYPE          NAME
  ----------------------------------

  -------         MODULE        MAIN
  C:0000H         SYMBOL        _ICE_DUMMY_
  D:0080H         PUBLIC        P0
  D:0090H         PUBLIC        P1
  D:00A0H         PUBLIC        P2
  D:00B0H         PUBLIC        P3
  D:00A8H         PUBLIC        IE
  C:04D0H         PUBLIC        T0_time
  C:028CH         PUBLIC        T1_time
  D:00B8H         PUBLIC        IP
  C:0751H         PUBLIC        main
  D:0098H         PUBLIC        SCON
  D:0088H         PUBLIC        TCON
  D:008DH         PUBLIC        TH1
  D:008BH         PUBLIC        TL1
  B:0088H.4       PUBLIC        TR0
  B:0088H.6       PUBLIC        TR1
  D:00C8H         PUBLIC        T2CON
  D:00D0H         PUBLIC        PSW
  -------         PROC          MAIN
BL51 BANKED LINKER/LOCATER V6.22.2.0                                                  06/27/2018  21:49:15  PAGE 4


  C:0751H         LINE#         26
  C:0751H         LINE#         27
  C:0751H         LINE#         28
  C:0754H         LINE#         29
  C:0754H         LINE#         30
  C:0757H         LINE#         31
  C:075AH         LINE#         32
  C:075DH         LINE#         34
  -------         ENDPROC       MAIN
  -------         PROC          T0_TIME
  C:04D0H         LINE#         44
  C:04EDH         LINE#         46
  C:04EFH         LINE#         47
  C:04F1H         LINE#         48
  C:04F4H         LINE#         49
  C:04F6H         LINE#         50
  -------         ENDPROC       T0_TIME
  -------         PROC          T1_TIME
  C:028CH         LINE#         59
  C:02A9H         LINE#         61
  C:02ABH         LINE#         63
  C:02AEH         LINE#         65
  C:02C7H         LINE#         66
  C:02CEH         LINE#         67
  C:02D0H         LINE#         68
  -------         ENDPROC       T1_TIME
  -------         ENDMOD        MAIN

  -------         MODULE        XUNJI
  C:0000H         SYMBOL        _ICE_DUMMY_
  D:0080H         PUBLIC        P0
  D:0090H         PUBLIC        P1
  C:063DH         PUBLIC        turn_left_max
  B:00A0H.0       PUBLIC        R0
  D:00A0H         PUBLIC        P2
  B:00A0H.1       PUBLIC        R1
  D:00B0H         PUBLIC        P3
  B:00A0H.2       PUBLIC        R2
  B:00A8H.7       PUBLIC        EA
  D:000CH         PUBLIC        runtime
  D:00A8H         PUBLIC        IE
  D:000EH         PUBLIC        current_turn_config
  C:001EH         PUBLIC        _load_time_config
  C:073AH         PUBLIC        _delay
  B:0090H.7       PUBLIC        SIG1
  C:06B5H         PUBLIC        turn_right_90
  D:00B8H         PUBLIC        IP
  D:000FH         PUBLIC        turn_configs
  B:0080H.6       PUBLIC        BX
  D:0015H         PUBLIC        ltime
  B:00B0H.3       PUBLIC        ECHO
  B:0090H.3       PUBLIC        XUNJI_1
  B:0090H.2       PUBLIC        XUNJI_2
  C:06D9H         PUBLIC        go_straight
  C:0691H         PUBLIC        turn_left_90
  B:0090H.1       PUBLIC        XUNJI_3
  D:0017H         PUBLIC        rtime
BL51 BANKED LINKER/LOCATER V6.22.2.0                                                  06/27/2018  21:49:15  PAGE 5


  B:0090H.0       PUBLIC        XUNJI_4
  C:075FH         PUBLIC        _set_display
  C:0348H         PUBLIC        key_control
  D:0019H         PUBLIC        time
  D:001AH         PUBLIC        right_steps
  D:0098H         PUBLIC        SCON
  C:0551H         PUBLIC        output
  D:0089H         PUBLIC        TMOD
  D:0088H         PUBLIC        TCON
  C:048CH         PUBLIC        init
  C:071AH         PUBLIC        wait
  B:00B0H.2       PUBLIC        TRIG
  D:001CH         PUBLIC        lturn_right
  D:001DH         PUBLIC        left_steps
  D:001FH         PUBLIC        rturn_right
  B:0080H.4       PUBLIC        A
  B:0080H.2       PUBLIC        C
  B:00B0H.5       PUBLIC        CESU_1
  B:0080H.1       PUBLIC        D
  B:00B0H.4       PUBLIC        CESU_2
  B:0080H.0       PUBLIC        E
  B:0080H.5       PUBLIC        F
  D:0020H         PUBLIC        lturn_left
  B:0080H.3       PUBLIC        G
  C:03A3H         PUBLIC        stop
  B:00A8H.1       PUBLIC        ET0
  B:00A8H.3       PUBLIC        ET1
  D:0021H         PUBLIC        rturn_left
  D:008CH         PUBLIC        TH0
  C:0511H         PUBLIC        get_wheel_steps
  C:0613H         PUBLIC        turn_right
  D:008DH         PUBLIC        TH1
  C:0588H         PUBLIC        infrared
  D:0022H         PUBLIC        tune_time
  D:008AH         PUBLIC        TL0
  D:008BH         PUBLIC        TL1
  C:0138H         PUBLIC        key_scan
  D:0024H         PUBLIC        display_cache
  D:0025H         PUBLIC        sensitivity
  D:0027H         PUBLIC        pro_right
  C:03F3H         PUBLIC        crossroad
  B:0088H.4       PUBLIC        TR0
  B:0088H.6       PUBLIC        TR1
  D:0028H         PUBLIC        lstraight
  C:05E9H         PUBLIC        turn_left
  B:00B0H.7       PUBLIC        IN1_1
  B:00A0H.4       PUBLIC        IN2_1
  B:00B0H.6       PUBLIC        IN1_2
  B:00A0H.5       PUBLIC        IN2_2
  C:0442H         PUBLIC        segdata
  C:044CH         PUBLIC        speed_level_configs
  D:0029H         PUBLIC        rstraight
  C:05BBH         PUBLIC        set_display_now
  D:002AH         PUBLIC        pro_left
  D:002BH         PUBLIC        lturn_right_max
  B:00A0H.3       PUBLIC        BUZZER
  D:00C8H         PUBLIC        T2CON
BL51 BANKED LINKER/LOCATER V6.22.2.0                                                  06/27/2018  21:49:15  PAGE 6


  D:002CH         PUBLIC        rturn_right_max
  C:06FDH         PUBLIC        straight
  D:002DH         PUBLIC        lturn_left_max
  B:0080H.7       PUBLIC        C0
  B:00A0H.7       PUBLIC        C1
  D:002EH         PUBLIC        current_time_config
  D:002FH         PUBLIC        rturn_left_max
  B:00A0H.6       PUBLIC        C2
  C:0667H         PUBLIC        turn_right_max
  D:0030H         PUBLIC        display
  D:00D0H         PUBLIC        PSW
  C:0736H         SYMBOL        L?0152
  -------         PROC          L?0151
  -------         ENDPROC       L?0151
  C:0736H         SYMBOL        L?0152
  -------         PROC          _DELAY
  D:0006H         SYMBOL        i
  -------         DO            
  D:0005H         SYMBOL        j
  -------         ENDDO         
  C:073AH         LINE#         57
  C:073AH         LINE#         58
  C:073AH         LINE#         60
  C:0745H         LINE#         61
  C:0750H         LINE#         62
  -------         ENDPROC       _DELAY
  -------         PROC          KEY_SCAN
  C:0138H         LINE#         64
  C:0138H         LINE#         65
  C:0138H         LINE#         66
  C:013AH         LINE#         67
  C:0141H         LINE#         68
  C:014FH         LINE#         69
  C:0158H         LINE#         70
  C:0158H         LINE#         71
  C:0163H         LINE#         72
  C:016EH         LINE#         73
  C:0179H         LINE#         74
  C:0179H         LINE#         75
  C:017BH         LINE#         77
  C:017DH         LINE#         78
  C:0184H         LINE#         79
  C:0190H         LINE#         80
  C:0199H         LINE#         81
  C:0199H         LINE#         82
  C:01A4H         LINE#         83
  C:01AFH         LINE#         84
  C:01BAH         LINE#         85
  C:01BAH         LINE#         86
  C:01BCH         LINE#         88
  C:01BEH         LINE#         89
  C:01C5H         LINE#         90
  C:01D1H         LINE#         91
  C:01DAH         LINE#         92
  C:01DAH         LINE#         93
  C:01E5H         LINE#         94
  C:01F0H         LINE#         95
BL51 BANKED LINKER/LOCATER V6.22.2.0                                                  06/27/2018  21:49:15  PAGE 7


  C:01FBH         LINE#         96
  C:01FBH         LINE#         97
  C:01FDH         LINE#         99
  C:01FFH         LINE#         100
  -------         ENDPROC       KEY_SCAN
  -------         PROC          KEY_CONTROL
  C:0348H         LINE#         102
  C:0348H         LINE#         103
  C:0348H         LINE#         104
  C:035EH         LINE#         105
  C:035EH         LINE#         164
  C:035EH         LINE#         165
  C:0360H         LINE#         166
  C:0362H         LINE#         168
  C:0362H         LINE#         169
  C:0364H         LINE#         170
  C:0366H         LINE#         172
  C:0366H         LINE#         173
  C:036BH         LINE#         174
  C:036BH         LINE#         176
  C:036BH         LINE#         177
  C:036BH         LINE#         179
  C:036DH         LINE#         180
  C:0374H         LINE#         181
  C:0377H         LINE#         182
  C:037CH         LINE#         183
  C:037CH         LINE#         188
  C:037CH         LINE#         190
  C:037CH         LINE#         191
  C:037CH         LINE#         192
  C:037EH         LINE#         193
  C:0382H         LINE#         194
  C:0391H         LINE#         195
  C:0393H         LINE#         196
  C:0395H         LINE#         197
  C:0397H         LINE#         198
  C:0399H         LINE#         199
  C:039EH         LINE#         200
  C:03A2H         LINE#         201
  C:03A2H         LINE#         202
  C:03A2H         LINE#         203
  C:03A2H         LINE#         204
  -------         ENDPROC       KEY_CONTROL
  -------         PROC          INIT
  C:048CH         LINE#         224
  C:048CH         LINE#         225
  C:048CH         LINE#         243
  C:048EH         LINE#         244
  C:0491H         LINE#         246
  C:0494H         LINE#         247
  C:0497H         LINE#         248
  C:0499H         LINE#         249
  C:049BH         LINE#         251
  C:04B4H         LINE#         252
  C:04BBH         LINE#         253
  C:04BDH         LINE#         254
  C:04BFH         LINE#         264
BL51 BANKED LINKER/LOCATER V6.22.2.0                                                  06/27/2018  21:49:15  PAGE 8


  C:04C1H         LINE#         265
  C:04C3H         LINE#         266
  C:04C5H         LINE#         267
  C:04C7H         LINE#         268
  C:04C9H         LINE#         269
  C:04CBH         LINE#         270
  C:04CDH         LINE#         271
  C:04CFH         LINE#         274
  -------         ENDPROC       INIT
  -------         PROC          STRAIGHT
  C:06FDH         LINE#         276
  C:06FDH         LINE#         277
  C:06FDH         LINE#         280
  C:070EH         LINE#         281
  C:0713H         LINE#         282
  C:0713H         LINE#         283
  C:0716H         LINE#         284
  C:0719H         LINE#         285
  C:0719H         LINE#         286
  -------         ENDPROC       STRAIGHT
  -------         PROC          TURN_LEFT
  C:05E9H         LINE#         288
  C:05E9H         LINE#         289
  C:05E9H         LINE#         291
  C:05FAH         LINE#         292
  C:05FFH         LINE#         293
  C:060BH         LINE#         294
  C:060CH         LINE#         295
  C:060FH         LINE#         296
  C:0612H         LINE#         297
  C:0612H         LINE#         298
  -------         ENDPROC       TURN_LEFT
  -------         PROC          TURN_RIGHT
  C:0613H         LINE#         300
  C:0613H         LINE#         301
  C:0613H         LINE#         303
  C:0624H         LINE#         304
  C:0629H         LINE#         305
  C:0635H         LINE#         306
  C:0636H         LINE#         307
  C:0639H         LINE#         308
  C:063CH         LINE#         309
  C:063CH         LINE#         310
  -------         ENDPROC       TURN_RIGHT
  -------         PROC          TURN_LEFT_MAX
  C:063DH         LINE#         312
  C:063DH         LINE#         313
  C:063DH         LINE#         315
  C:064EH         LINE#         316
  C:0653H         LINE#         317
  C:065FH         LINE#         318
  C:0660H         LINE#         319
  C:0663H         LINE#         320
  C:0666H         LINE#         321
  C:0666H         LINE#         322
  -------         ENDPROC       TURN_LEFT_MAX
  -------         PROC          TURN_RIGHT_MAX
BL51 BANKED LINKER/LOCATER V6.22.2.0                                                  06/27/2018  21:49:15  PAGE 9


  C:0667H         LINE#         324
  C:0667H         LINE#         325
  C:0667H         LINE#         326
  C:0678H         LINE#         327
  C:067DH         LINE#         328
  C:0689H         LINE#         329
  C:068AH         LINE#         330
  C:068DH         LINE#         331
  C:0690H         LINE#         332
  C:0690H         LINE#         333
  -------         ENDPROC       TURN_RIGHT_MAX
  -------         PROC          TURN_LEFT_90
  -------         DO            
  D:0006H         SYMBOL        i
  -------         ENDDO         
  C:0691H         LINE#         336
  C:0691H         LINE#         337
  C:0691H         LINE#         338
  C:0695H         LINE#         339
  C:069FH         LINE#         340
  C:069FH         LINE#         342
  C:06AAH         LINE#         343
  C:06AEH         LINE#         344
  C:06B0H         LINE#         345
  C:06B2H         LINE#         346
  C:06B4H         LINE#         347
  -------         ENDPROC       TURN_LEFT_90
  -------         PROC          TURN_RIGHT_90
  -------         DO            
  D:0006H         SYMBOL        i
  -------         ENDDO         
  C:06B5H         LINE#         351
  C:06B5H         LINE#         352
  C:06B5H         LINE#         353
  C:06B9H         LINE#         354
  C:06C3H         LINE#         355
  C:06C3H         LINE#         356
  C:06CEH         LINE#         357
  C:06D2H         LINE#         358
  C:06D4H         LINE#         359
  C:06D6H         LINE#         360
  C:06D8H         LINE#         361
  -------         ENDPROC       TURN_RIGHT_90
  -------         PROC          GO_STRAIGHT
  -------         DO            
  D:0006H         SYMBOL        i
  -------         ENDDO         
  C:06D9H         LINE#         363
  C:06D9H         LINE#         364
  C:06D9H         LINE#         365
  C:06DDH         LINE#         366
  C:06E7H         LINE#         367
  C:06E7H         LINE#         368
  C:06F2H         LINE#         369
  C:06F6H         LINE#         370
  C:06F8H         LINE#         371
  C:06FAH         LINE#         372
BL51 BANKED LINKER/LOCATER V6.22.2.0                                                  06/27/2018  21:49:15  PAGE 10


  C:06FCH         LINE#         373
  -------         ENDPROC       GO_STRAIGHT
  -------         PROC          STOP
  -------         DO            
  D:0031H         SYMBOL        i
  D:0033H         SYMBOL        j
  -------         ENDDO         
  C:03A3H         LINE#         375
  C:03A3H         LINE#         376
  C:03A3H         LINE#         377
  C:03A8H         LINE#         379
  C:03C3H         LINE#         380
  C:03C3H         LINE#         381
  C:03C6H         LINE#         382
  C:03D3H         LINE#         383
  C:03D9H         LINE#         384
  C:03DCH         LINE#         385
  C:03DEH         LINE#         386
  -------         ENDPROC       STOP
  -------         PROC          CROSSROAD
  C:03F3H         LINE#         413
  C:03F3H         LINE#         414
  C:03F3H         LINE#         415
  C:03FFH         LINE#         416
  C:03FFH         LINE#         417
  C:0402H         LINE#         418
  C:0409H         LINE#         419
  C:0412H         LINE#         420
  C:0415H         LINE#         421
  C:0418H         LINE#         422
  C:0418H         LINE#         423
  C:0418H         LINE#         424
  C:0423H         LINE#         425
  C:0426H         LINE#         426
  C:0429H         LINE#         427
  C:0429H         LINE#         428
  C:0429H         LINE#         429
  C:042BH         LINE#         431
  C:042EH         LINE#         432
  C:0430H         LINE#         433
  C:0432H         LINE#         434
  C:0432H         LINE#         436
  C:0434H         LINE#         437
  C:0437H         LINE#         438
  C:043AH         LINE#         439
  C:043AH         LINE#         440
  C:043CH         LINE#         441
  C:0441H         LINE#         469
  C:0441H         LINE#         470
  -------         ENDPROC       CROSSROAD
  -------         PROC          WAIT
  C:071AH         LINE#         472
  C:071AH         LINE#         473
  C:071AH         LINE#         474
  C:071CH         LINE#         475
  C:071EH         LINE#         476
  C:0721H         LINE#         477
BL51 BANKED LINKER/LOCATER V6.22.2.0                                                  06/27/2018  21:49:15  PAGE 11


  C:0725H         LINE#         478
  C:0729H         LINE#         479
  C:072BH         LINE#         480
  C:072DH         LINE#         481
  C:072FH         LINE#         482
  C:0731H         LINE#         483
  C:0733H         LINE#         484
  C:0735H         LINE#         485
  -------         ENDPROC       WAIT
  -------         PROC          INFRARED
  C:0588H         LINE#         492
  C:0588H         LINE#         493
  C:0588H         LINE#         495
  C:0594H         LINE#         496
  C:0597H         LINE#         498
  C:059AH         LINE#         499
  C:059DH         LINE#         501
  C:05A0H         LINE#         502
  C:05A3H         LINE#         504
  C:05A9H         LINE#         505
  C:05ABH         LINE#         507
  C:05AEH         LINE#         508
  C:05B1H         LINE#         510
  C:05B4H         LINE#         511
  C:05B7H         LINE#         513
  C:05BAH         LINE#         515
  -------         ENDPROC       INFRARED
  -------         PROC          OUTPUT
  C:0551H         LINE#         518
  C:0551H         LINE#         519
  C:0551H         LINE#         520
  C:0558H         LINE#         521
  C:0558H         LINE#         522
  C:055BH         LINE#         523
  C:055DH         LINE#         524
  C:055FH         LINE#         525
  C:0561H         LINE#         526
  C:0563H         LINE#         528
  C:0575H         LINE#         529
  C:0575H         LINE#         531
  C:057EH         LINE#         532
  C:0587H         LINE#         534
  -------         ENDPROC       OUTPUT
  -------         PROC          _SET_DISPLAY
  D:0007H         SYMBOL        digit
  C:075FH         LINE#         536
  C:075FH         LINE#         537
  C:076CH         LINE#         538
  -------         ENDPROC       _SET_DISPLAY
  -------         PROC          SET_DISPLAY_NOW
  C:05BBH         LINE#         540
  C:05BBH         LINE#         541
  C:05C9H         LINE#         542
  C:05CEH         LINE#         543
  C:05D4H         LINE#         544
  C:05D8H         LINE#         545
  C:05DCH         LINE#         546
BL51 BANKED LINKER/LOCATER V6.22.2.0                                                  06/27/2018  21:49:15  PAGE 12


  C:05E0H         LINE#         547
  C:05E4H         LINE#         548
  C:05E8H         LINE#         549
  -------         ENDPROC       SET_DISPLAY_NOW
  -------         PROC          _LOAD_TIME_CONFIG
  D:0007H         SYMBOL        idx
  C:001EH         LINE#         552
  C:001EH         LINE#         553
  C:0020H         LINE#         554
  C:0028H         LINE#         555
  C:002BH         LINE#         556
  C:0035H         LINE#         557
  C:0038H         LINE#         558
  C:0038H         LINE#         559
  C:004FH         LINE#         560
  C:0061H         LINE#         561
  C:0073H         LINE#         562
  C:0085H         LINE#         563
  C:0097H         LINE#         564
  C:00A9H         LINE#         565
  C:00BBH         LINE#         566
  C:00CDH         LINE#         567
  C:00DFH         LINE#         568
  C:00F1H         LINE#         569
  C:0103H         LINE#         570
  C:011AH         LINE#         571
  C:0131H         LINE#         574
  -------         ENDPROC       _LOAD_TIME_CONFIG
  -------         PROC          GET_WHEEL_STEPS
  -------         DO            
  D:0008H         SYMBOL        last_left
  D:000AH         SYMBOL        last_right
  -------         ENDDO         
  C:0511H         LINE#         595
  C:0511H         LINE#         597
  C:052EH         LINE#         598
  C:0550H         LINE#         599
  -------         ENDPROC       GET_WHEEL_STEPS
  -------         ENDMOD        XUNJI

Program Size: data=54.0 xdata=0 code=1880
LINK/LOCATE RUN COMPLETE.  0 WARNING(S),  0 ERROR(S)
